; Function Attrs: nounwind uwtable
define hidden void @h248_param_uint_item(ptr noundef %0, ptr noundef %1, ptr readnone captures(none) %2, i32 noundef %3, ptr readnone captures(none) %4, ptr noundef readonly %5) #0 {
  %.not = icmp eq ptr %5, null
  br i1 %.not, label %9, label %7

7:                                                ; preds = %6
  %8 = load i32, ptr %5, align 4
  br label %9

9:                                                ; preds = %6, %7
  %10 = phi i32 [ %8, %7 ], [ -1, %6 ]
  %11 = tail call ptr @proto_tree_add_item(ptr noundef %0, i32 noundef %3, ptr noundef %1, i32 noundef 0, i32 noundef %10, i32 noundef 0) #7
  ret void
}